target datalayout = "e-m:e-p270:32:32-p271:32:32-p272:64:64-i64:64-i128:128-f80:128-n8:16:32:64-S128"
target triple = "x86_64-pc-linux-gnu"

%"class.enki::TaskScheduler" = type <{ [3 x ptr], [3 x ptr], i32, [4 x i8], ptr, ptr, %"struct.std::atomic", %"struct.std::atomic", %"struct.std::atomic", i8, %"struct.std::atomic.0", %"struct.std::atomic.0", %"struct.std::atomic.0", i32, [4 x i8], ptr, ptr, i32, i8, [3 x i8], %"struct.enki::TaskSchedulerConfig", %"struct.std::atomic.0", [4 x i8] }>
%"struct.std::atomic" = type { %"struct.std::__atomic_base" }
%"struct.std::__atomic_base" = type { i8 }
%"struct.enki::TaskSchedulerConfig" = type { i32, i32, %"struct.enki::ProfilerCallbacks", %"struct.enki::CustomAllocator" }
%"struct.enki::ProfilerCallbacks" = type { ptr, ptr, ptr, ptr, ptr, ptr, ptr, ptr }
%"struct.enki::CustomAllocator" = type { ptr, ptr, ptr }
%"struct.std::atomic.0" = type { %"struct.std::__atomic_base.1" }
%"struct.std::__atomic_base.1" = type { i32 }
%"struct.enki::ThreadDataStore" = type { ptr, %"struct.std::atomic.2", i32, [48 x i8] }
%"struct.std::atomic.2" = type { i32 }

@_ZL13gtl_threadNum = internal thread_local global i32 -1, align 4

; Function Attrs: alwaysinline mustprogress nounwind uwtable
define linkonce_odr dso_local void @_ZSt19atomic_thread_fenceSt12memory_order(i32 noundef %0) #9 comdat {
  %2 = alloca i32, align 4
  store i32 %0, ptr %2, align 4, !tbaa !72
  %3 = load i32, ptr %2, align 4, !tbaa !72
  switch i32 %3, label %8 [
    i32 1, label %4
    i32 2, label %4
    i32 3, label %5
    i32 4, label %6
    i32 5, label %7
  ]

4:                                                ; preds = %1, %1
  fence acquire
  br label %8

5:                                                ; preds = %1
  fence release
  br label %8

6:                                                ; preds = %1
  fence acq_rel
  br label %8

7:                                                ; preds = %1
  fence seq_cst
  br label %8

8:                                                ; preds = %7, %6, %5, %4, %1
  ret void
}

; Function Attrs: mustprogress nounwind uwtable
define linkonce_odr dso_local void @_ZNSt6atomicIN4enki11ThreadStateEE5storeES1_St12memory_order(ptr noundef nonnull align 4 dereferenceable(4) %0, i32 noundef %1, i32 noundef %2) #5 comdat align 2 {
  %4 = alloca ptr, align 8
  %5 = alloca i32, align 4
  %6 = alloca i32, align 4
  store ptr %0, ptr %4, align 8, !tbaa !70
  store i32 %1, ptr %5, align 4, !tbaa !26
  store i32 %2, ptr %6, align 4, !tbaa !72
  %7 = load ptr, ptr %4, align 8
  %8 = getelementptr inbounds nuw %"struct.std::atomic.2", ptr %7, i32 0, i32 0
  %9 = load i32, ptr %6, align 4, !tbaa !72
  switch i32 %9, label %10 [
    i32 3, label %12
    i32 5, label %14
  ]

10:                                               ; preds = %3
  %11 = load i32, ptr %5, align 4
  store atomic i32 %11, ptr %8 monotonic, align 4
  br label %16

12:                                               ; preds = %3
  %13 = load i32, ptr %5, align 4
  store atomic i32 %13, ptr %8 release, align 4
  br label %16

14:                                               ; preds = %3
  %15 = load i32, ptr %5, align 4
  store atomic i32 %15, ptr %8 seq_cst, align 4
  br label %16

16:                                               ; preds = %14, %12, %10
  ret void
}

; Function Attrs: mustprogress nounwind uwtable
define linkonce_odr dso_local noundef i32 @_ZNKSt6atomicIN4enki11ThreadStateEE4loadESt12memory_order(ptr noundef nonnull align 4 dereferenceable(4) %0, i32 noundef %1) #5 comdat align 2 {
  %3 = alloca ptr, align 8
  %4 = alloca i32, align 4
  %5 = alloca [4 x i8], align 4
  %6 = alloca ptr, align 8
  store ptr %0, ptr %3, align 8, !tbaa !70
  store i32 %1, ptr %4, align 4, !tbaa !72
  %7 = load ptr, ptr %3, align 8
  call void @llvm.lifetime.start.p0(i64 4, ptr %5) #14
  call void @llvm.lifetime.start.p0(i64 8, ptr %6) #14
  %8 = getelementptr inbounds [4 x i8], ptr %5, i64 0, i64 0
  store ptr %8, ptr %6, align 8, !tbaa !58
  %9 = getelementptr inbounds nuw %"struct.std::atomic.2", ptr %7, i32 0, i32 0
  %10 = load i32, ptr %4, align 4, !tbaa !72
  %11 = load ptr, ptr %6, align 8, !tbaa !58
  switch i32 %10, label %12 [
    i32 1, label %14
    i32 2, label %14
    i32 5, label %16
  ]

12:                                               ; preds = %2
  %13 = load atomic i32, ptr %9 monotonic, align 4
  store i32 %13, ptr %11, align 4
  br label %18

14:                                               ; preds = %2, %2
  %15 = load atomic i32, ptr %9 acquire, align 4
  store i32 %15, ptr %11, align 4
  br label %18

16:                                               ; preds = %2
  %17 = load atomic i32, ptr %9 seq_cst, align 4
  store i32 %17, ptr %11, align 4
  br label %18

18:                                               ; preds = %16, %14, %12
  %19 = load ptr, ptr %6, align 8, !tbaa !58
  %20 = load i32, ptr %19, align 4, !tbaa !26
  call void @llvm.lifetime.end.p0(i64 8, ptr %6) #14
  call void @llvm.lifetime.end.p0(i64 4, ptr %5) #14
  ret i32 %20
}

; Function Attrs: mustprogress uwtable
define dso_local void @_ZN4enki13TaskScheduler14RunPinnedTasksEv(ptr noundef nonnull align 8 dereferenceable(220) %0) #0 align 2 {
  %2 = alloca ptr, align 8
  %3 = alloca i32, align 4
  %4 = alloca i32, align 4
  %5 = alloca i32, align 4
  store ptr %0, ptr %2, align 8, !tbaa !4
  %6 = load ptr, ptr %2, align 8
  call void @llvm.lifetime.start.p0(i64 4, ptr %3) #14
  %7 = call align 4 ptr @llvm.threadlocal.address.p0(ptr align 4 @_ZL13gtl_threadNum)
  %8 = load i32, ptr %7, align 4, !tbaa !11
  store i32 %8, ptr %3, align 4, !tbaa !11
  call void @llvm.lifetime.start.p0(i64 4, ptr %4) #14
  %9 = getelementptr inbounds nuw %"class.enki::TaskScheduler", ptr %6, i32 0, i32 4
  %10 = load ptr, ptr %9, align 8, !tbaa !13
  %11 = load i32, ptr %3, align 4, !tbaa !11
  %12 = zext i32 %11 to i64
  %13 = getelementptr inbounds nuw %"struct.enki::ThreadDataStore", ptr %10, i64 %12
  %14 = getelementptr inbounds nuw %"struct.enki::ThreadDataStore", ptr %13, i32 0, i32 1
  %15 = call noundef i32 @_ZNKSt6atomicIN4enki11ThreadStateEE4loadESt12memory_order(ptr noundef nonnull align 4 dereferenceable(4) %14, i32 noundef 0) #14
  store i32 %15, ptr %4, align 4, !tbaa !26
  %16 = getelementptr inbounds nuw %"class.enki::TaskScheduler", ptr %6, i32 0, i32 4
  %17 = load ptr, ptr %16, align 8, !tbaa !13
  %18 = load i32, ptr %3, align 4, !tbaa !11
  %19 = zext i32 %18 to i64
  %20 = getelementptr inbounds nuw %"struct.enki::ThreadDataStore", ptr %17, i64 %19
  %21 = getelementptr inbounds nuw %"struct.enki::ThreadDataStore", ptr %20, i32 0, i32 1
  call void @_ZNSt6atomicIN4enki11ThreadStateEE5storeES1_St12memory_order(ptr noundef nonnull align 4 dereferenceable(4) %21, i32 noundef 2, i32 noundef 0) #14
  call void @_ZSt19atomic_thread_fenceSt12memory_order(i32 noundef 2) #14
  call void @llvm.lifetime.start.p0(i64 4, ptr %5) #14
  store i32 0, ptr %5, align 4, !tbaa !11
  br label %22

22:                                               ; preds = %29, %1
  %23 = load i32, ptr %5, align 4, !tbaa !11
  %24 = icmp slt i32 %23, 3
  br i1 %24, label %26, label %25

25:                                               ; preds = %22
  call void @llvm.lifetime.end.p0(i64 4, ptr %5) #14
  br label %32

26:                                               ; preds = %22
  %27 = load i32, ptr %3, align 4, !tbaa !11
  %28 = load i32, ptr %5, align 4, !tbaa !11
  call void @_ZN4enki13TaskScheduler14RunPinnedTasksEjj(ptr noundef nonnull align 8 dereferenceable(220) %6, i32 noundef %27, i32 noundef %28)
  br label %29

29:                                               ; preds = %26
  %30 = load i32, ptr %5, align 4, !tbaa !11
  %31 = add nsw i32 %30, 1
  store i32 %31, ptr %5, align 4, !tbaa !11
  br label %22, !llvm.loop !157

32:                                               ; preds = %25
  %33 = getelementptr inbounds nuw %"class.enki::TaskScheduler", ptr %6, i32 0, i32 4
  %34 = load ptr, ptr %33, align 8, !tbaa !13
  %35 = load i32, ptr %3, align 4, !tbaa !11
  %36 = zext i32 %35 to i64
  %37 = getelementptr inbounds nuw %"struct.enki::ThreadDataStore", ptr %34, i64 %36
  %38 = getelementptr inbounds nuw %"struct.enki::ThreadDataStore", ptr %37, i32 0, i32 1
  %39 = load i32, ptr %4, align 4, !tbaa !26
  call void @_ZNSt6atomicIN4enki11ThreadStateEE5storeES1_St12memory_order(ptr noundef nonnull align 4 dereferenceable(4) %38, i32 noundef %39, i32 noundef 3) #14
  call void @llvm.lifetime.end.p0(i64 4, ptr %4) #14
  call void @llvm.lifetime.end.p0(i64 4, ptr %3) #14
  ret void
}