; Function Attrs: mustprogress uwtable
define dso_local void @_ZN4enki13TaskScheduler14RunPinnedTasksEv(ptr noundef nonnull align 8 dereferenceable(220) %0) local_unnamed_addr #0 align 2 {
  %2 = tail call align 4 ptr @llvm.threadlocal.address.p0(ptr align 4 @_ZL13gtl_threadNum)
  %3 = load i32, ptr %2, align 4, !tbaa !27
  %4 = getelementptr inbounds nuw i8, ptr %0, i64 56
  %5 = load ptr, ptr %4, align 8, !tbaa !4
  %6 = zext i32 %3 to i64
  %7 = getelementptr inbounds nuw %"struct.enki::ThreadDataStore", ptr %5, i64 %6, i32 1
  %8 = load atomic i32, ptr %7 monotonic, align 4
  store atomic i32 2, ptr %7 monotonic, align 4
  fence acquire
  br label %12

9:                                                ; preds = %12
  %10 = load ptr, ptr %4, align 8, !tbaa !4
  %11 = getelementptr inbounds nuw %"struct.enki::ThreadDataStore", ptr %10, i64 %6, i32 1
  store atomic i32 %8, ptr %11 release, align 4
  ret void

12:                                               ; preds = %1, %12
  %.08 = phi i32 [ 0, %1 ], [ %13, %12 ]
  tail call void @_ZN4enki13TaskScheduler14RunPinnedTasksEjj(ptr noundef nonnull align 8 dereferenceable(220) %0, i32 noundef %3, i32 noundef %.08)
  %13 = add nuw nsw i32 %.08, 1
  %exitcond.not = icmp eq i32 %13, 3
  br i1 %exitcond.not, label %9, label %12, !llvm.loop !125
}